target datalayout = "e-m:e-p270:32:32-p271:32:32-p272:64:64-i64:64-i128:128-f80:128-n8:16:32:64-S128"
target triple = "x86_64-pc-linux-gnu"

%struct._value_string_ext = type { ptr, i32, i32, ptr, ptr }
%struct.expert_field = type { i32, i32 }

@hf_r3_commandlength = internal global i32 0, align 4
@hf_r3_command = internal global i32 0, align 4
@.str.52 = private unnamed_addr constant [6 x i8] c"Error\00", align 1
@r3_alarmidnames_ext = internal global %struct._value_string_ext { ptr @_try_val_to_str_ext_init, i32 0, i32 10, ptr @r3_alarmidnames, ptr @.str.1654 }, align 8
@hf_r3_alarm_length = internal global i32 0, align 4
@hf_r3_alarm_id = internal global i32 0, align 4
@hf_r3_alarm_state = internal global i32 0, align 4
@ett_r3alarmlist = internal global i32 0, align 4
@ett_r3alarmcfg = internal global i32 0, align 4
@ei_r3_malformed_length = internal global %struct.expert_field zeroinitializer, align 4
@.str.2138 = private unnamed_addr constant [8 x i8] c"Enabled\00", align 1
@.str.2139 = private unnamed_addr constant [9 x i8] c"Disabled\00", align 1
@.str.2183 = private unnamed_addr constant [21 x i8] c"Alarm List (0 items)\00", align 1
@.str.2184 = private unnamed_addr constant [19 x i8] c"[Unknown Alarm ID]\00", align 1
@.str.2185 = private unnamed_addr constant [4 x i8] c"N/A\00", align 1
@.str.2186 = private unnamed_addr constant [20 x i8] c"Alarm Item (%s, %s)\00", align 1
@.str.2187 = private unnamed_addr constant [60 x i8] c"Alarm length equal to 0. Payload could be partially decoded\00", align 1
@.str.2188 = private unnamed_addr constant [22 x i8] c"Alarm List (%d items)\00", align 1

; Function Attrs: null_pointer_is_valid sspstrong uwtable
define internal void @dissect_r3_cmd_alarmconfigure(ptr noundef %0, i32 noundef %1, i32 noundef %2, ptr noundef %3, ptr noundef %4) #0 {
  %6 = alloca ptr, align 8
  %7 = alloca i32, align 4
  %8 = alloca i32, align 4
  %9 = alloca ptr, align 8
  %10 = alloca ptr, align 8
  %11 = alloca ptr, align 8
  %12 = alloca ptr, align 8
  %13 = alloca i32, align 4
  %14 = alloca ptr, align 8
  %15 = alloca i32, align 4
  %16 = alloca i32, align 4
  %17 = alloca i32, align 4
  %18 = alloca ptr, align 8
  %19 = alloca ptr, align 8
  %20 = alloca ptr, align 8
  %21 = alloca ptr, align 8
  %22 = alloca i32, align 4
  store ptr %0, ptr %6, align 8
  store i32 %1, ptr %7, align 4
  store i32 %2, ptr %8, align 4
  store ptr %3, ptr %9, align 8
  store ptr %4, ptr %10, align 8
  call void @llvm.lifetime.start.p0(i64 8, ptr %11) #5
  call void @llvm.lifetime.start.p0(i64 8, ptr %12) #5
  call void @llvm.lifetime.start.p0(i64 4, ptr %13) #5
  call void @llvm.lifetime.start.p0(i64 8, ptr %14) #5
  call void @llvm.lifetime.start.p0(i64 4, ptr %15) #5
  store i32 0, ptr %15, align 4
  call void @llvm.lifetime.start.p0(i64 4, ptr %16) #5
  store i32 0, ptr %16, align 4
  %23 = load ptr, ptr %10, align 8
  %24 = icmp ne ptr %23, null
  br i1 %24, label %26, label %25

25:                                               ; preds = %5
  store i32 1, ptr %17, align 4
  br label %145

26:                                               ; preds = %5
  %27 = load ptr, ptr %6, align 8
  %28 = load i32, ptr %7, align 4
  %29 = add i32 %28, 0
  %30 = call zeroext i8 @tvb_get_uint8(ptr noundef %27, i32 noundef %29)
  %31 = zext i8 %30 to i32
  store i32 %31, ptr %13, align 4
  %32 = load ptr, ptr %6, align 8
  %33 = load i32, ptr %7, align 4
  %34 = add i32 %33, 2
  %35 = load i32, ptr %13, align 4
  %36 = sub i32 %35, 2
  %37 = call ptr @tvb_new_subset_length(ptr noundef %32, i32 noundef %34, i32 noundef %36)
  store ptr %37, ptr %14, align 8
  %38 = load ptr, ptr %10, align 8
  %39 = load i32, ptr @hf_r3_commandlength, align 4
  %40 = load ptr, ptr %6, align 8
  %41 = load i32, ptr %7, align 4
  %42 = add i32 %41, 0
  %43 = call ptr @proto_tree_add_item(ptr noundef %38, i32 noundef %39, ptr noundef %40, i32 noundef %42, i32 noundef 1, i32 noundef -2147483648)
  %44 = load ptr, ptr %10, align 8
  %45 = load i32, ptr @hf_r3_command, align 4
  %46 = load ptr, ptr %6, align 8
  %47 = load i32, ptr %7, align 4
  %48 = add i32 %47, 1
  %49 = call ptr @proto_tree_add_item(ptr noundef %44, i32 noundef %45, ptr noundef %46, i32 noundef %48, i32 noundef 1, i32 noundef -2147483648)
  %50 = load ptr, ptr %10, align 8
  %51 = load ptr, ptr %14, align 8
  %52 = load i32, ptr @ett_r3alarmlist, align 4
  %53 = call ptr @proto_tree_add_subtree(ptr noundef %50, ptr noundef %51, i32 noundef 0, i32 noundef -1, i32 noundef %52, ptr noundef %11, ptr noundef @.str.2183)
  store ptr %53, ptr %12, align 8
  br label %54

54:                                               ; preds = %137, %26
  %55 = load i32, ptr %15, align 4
  %56 = load i32, ptr %13, align 4
  %57 = sub i32 %56, 2
  %58 = icmp ult i32 %55, %57
  br i1 %58, label %59, label %138

59:                                               ; preds = %54
  call void @llvm.lifetime.start.p0(i64 8, ptr %18) #5
  call void @llvm.lifetime.start.p0(i64 8, ptr %19) #5
  call void @llvm.lifetime.start.p0(i64 8, ptr %20) #5
  call void @llvm.lifetime.start.p0(i64 8, ptr %21) #5
  call void @llvm.lifetime.start.p0(i64 4, ptr %22) #5
  %60 = load ptr, ptr %14, align 8
  %61 = load i32, ptr %15, align 4
  %62 = add i32 %61, 1
  %63 = call zeroext i8 @tvb_get_uint8(ptr noundef %60, i32 noundef %62)
  %64 = zext i8 %63 to i32
  %65 = call ptr @try_val_to_str_ext(i32 noundef %64, ptr noundef @r3_alarmidnames_ext)
  store ptr %65, ptr %20, align 8
  %66 = icmp ne ptr %65, null
  br i1 %66, label %68, label %67

67:                                               ; preds = %59
  store ptr @.str.2184, ptr %20, align 8
  store ptr @.str.2185, ptr %21, align 8
  br label %88

68:                                               ; preds = %59
  %69 = load ptr, ptr %14, align 8
  %70 = load i32, ptr %15, align 4
  %71 = add i32 %70, 2
  %72 = call zeroext i8 @tvb_get_uint8(ptr noundef %69, i32 noundef %71)
  %73 = zext i8 %72 to i32
  %74 = and i32 %73, 254
  %75 = icmp ne i32 %74, 0
  br i1 %75, label %76, label %77

76:                                               ; preds = %68
  br label %86

77:                                               ; preds = %68
  %78 = load ptr, ptr %14, align 8
  %79 = load i32, ptr %15, align 4
  %80 = add i32 %79, 2
  %81 = call zeroext i8 @tvb_get_uint8(ptr noundef %78, i32 noundef %80)
  %82 = zext i8 %81 to i32
  %83 = and i32 %82, 1
  %84 = icmp ne i32 %83, 0
  %85 = select i1 %84, ptr @.str.2138, ptr @.str.2139
  br label %86

86:                                               ; preds = %77, %76
  %87 = phi ptr [ @.str.52, %76 ], [ %85, %77 ]
  store ptr %87, ptr %21, align 8
  br label %88

88:                                               ; preds = %86, %67
  %89 = load ptr, ptr %12, align 8
  %90 = load ptr, ptr %14, align 8
  %91 = load i32, ptr %15, align 4
  %92 = load ptr, ptr %14, align 8
  %93 = load i32, ptr %15, align 4
  %94 = call zeroext i8 @tvb_get_uint8(ptr noundef %92, i32 noundef %93)
  %95 = zext i8 %94 to i32
  %96 = load i32, ptr @ett_r3alarmcfg, align 4
  %97 = load ptr, ptr %20, align 8
  %98 = load ptr, ptr %21, align 8
  %99 = call ptr (ptr, ptr, i32, i32, i32, ptr, ptr, ...) @proto_tree_add_subtree_format(ptr noundef %89, ptr noundef %90, i32 noundef %91, i32 noundef %95, i32 noundef %96, ptr noundef null, ptr noundef @.str.2186, ptr noundef %97, ptr noundef %98)
  store ptr %99, ptr %19, align 8
  %100 = load ptr, ptr %14, align 8
  %101 = load i32, ptr %15, align 4
  %102 = add i32 %101, 0
  %103 = call zeroext i8 @tvb_get_uint8(ptr noundef %100, i32 noundef %102)
  %104 = zext i8 %103 to i32
  store i32 %104, ptr %22, align 4
  %105 = load ptr, ptr %19, align 8
  %106 = load i32, ptr @hf_r3_alarm_length, align 4
  %107 = load ptr, ptr %14, align 8
  %108 = load i32, ptr %15, align 4
  %109 = add i32 %108, 0
  %110 = call ptr @proto_tree_add_item(ptr noundef %105, i32 noundef %106, ptr noundef %107, i32 noundef %109, i32 noundef 1, i32 noundef -2147483648)
  store ptr %110, ptr %18, align 8
  %111 = load i32, ptr %22, align 4
  %112 = icmp eq i32 %111, 0
  br i1 %112, label %113, label %117

113:                                              ; preds = %88
  %114 = load ptr, ptr %9, align 8
  %115 = load ptr, ptr %18, align 8
  %116 = call ptr (ptr, ptr, ptr, ptr, ...) @expert_add_info_format(ptr noundef %114, ptr noundef %115, ptr noundef @ei_r3_malformed_length, ptr noundef @.str.2187)
  store i32 3, ptr %17, align 4
  br label %135

117:                                              ; preds = %88
  %118 = load ptr, ptr %19, align 8
  %119 = load i32, ptr @hf_r3_alarm_id, align 4
  %120 = load ptr, ptr %14, align 8
  %121 = load i32, ptr %15, align 4
  %122 = add i32 %121, 1
  %123 = call ptr @proto_tree_add_item(ptr noundef %118, i32 noundef %119, ptr noundef %120, i32 noundef %122, i32 noundef 1, i32 noundef -2147483648)
  %124 = load ptr, ptr %19, align 8
  %125 = load i32, ptr @hf_r3_alarm_state, align 4
  %126 = load ptr, ptr %14, align 8
  %127 = load i32, ptr %15, align 4
  %128 = add i32 %127, 2
  %129 = call ptr @proto_tree_add_item(ptr noundef %124, i32 noundef %125, ptr noundef %126, i32 noundef %128, i32 noundef 1, i32 noundef -2147483648)
  %130 = load i32, ptr %16, align 4
  %131 = add i32 %130, 1
  store i32 %131, ptr %16, align 4
  %132 = load i32, ptr %22, align 4
  %133 = load i32, ptr %15, align 4
  %134 = add i32 %133, %132
  store i32 %134, ptr %15, align 4
  store i32 0, ptr %17, align 4
  br label %135

135:                                              ; preds = %117, %113
  call void @llvm.lifetime.end.p0(i64 4, ptr %22) #5
  call void @llvm.lifetime.end.p0(i64 8, ptr %21) #5
  call void @llvm.lifetime.end.p0(i64 8, ptr %20) #5
  call void @llvm.lifetime.end.p0(i64 8, ptr %19) #5
  call void @llvm.lifetime.end.p0(i64 8, ptr %18) #5
  %136 = load i32, ptr %17, align 4
  switch i32 %136, label %148 [
    i32 0, label %137
    i32 3, label %138
  ]

137:                                              ; preds = %135
  br label %54, !llvm.loop !16

138:                                              ; preds = %135, %54
  %139 = load i32, ptr %16, align 4
  %140 = icmp ne i32 %139, 0
  br i1 %140, label %141, label %144

141:                                              ; preds = %138
  %142 = load ptr, ptr %11, align 8
  %143 = load i32, ptr %16, align 4
  call void (ptr, ptr, ...) @proto_item_set_text(ptr noundef %142, ptr noundef @.str.2188, i32 noundef %143)
  br label %144

144:                                              ; preds = %141, %138
  store i32 0, ptr %17, align 4
  br label %145

145:                                              ; preds = %144, %25
  call void @llvm.lifetime.end.p0(i64 4, ptr %16) #5
  call void @llvm.lifetime.end.p0(i64 4, ptr %15) #5
  call void @llvm.lifetime.end.p0(i64 8, ptr %14) #5
  call void @llvm.lifetime.end.p0(i64 4, ptr %13) #5
  call void @llvm.lifetime.end.p0(i64 8, ptr %12) #5
  call void @llvm.lifetime.end.p0(i64 8, ptr %11) #5
  %146 = load i32, ptr %17, align 4
  switch i32 %146, label %148 [
    i32 0, label %147
    i32 1, label %147
  ]

147:                                              ; preds = %145, %145
  ret void

148:                                              ; preds = %145, %135
  unreachable
}