; Function Attrs: null_pointer_is_valid sspstrong uwtable
define internal void @dissect_r3_cmd_alarmconfigure(ptr noundef %0, i32 noundef %1, i32 %2, ptr noundef %3, ptr noundef %4) #0 {
  %6 = alloca ptr, align 8
  call void @llvm.lifetime.start.p0(i64 8, ptr nonnull %6) #5
  %.not = icmp eq ptr %4, null
  br i1 %.not, label %.loopexit.thread, label %7

7:                                                ; preds = %5
  %8 = tail call zeroext i8 @tvb_get_uint8(ptr noundef %0, i32 noundef %1)
  %9 = zext i8 %8 to i32
  %10 = add i32 %1, 2
  %11 = add nsw i32 %9, -2
  %12 = tail call ptr @tvb_new_subset_length(ptr noundef %0, i32 noundef %10, i32 noundef %11)
  %13 = load i32, ptr @hf_r3_commandlength, align 4
  %14 = tail call ptr @proto_tree_add_item(ptr noundef nonnull %4, i32 noundef %13, ptr noundef %0, i32 noundef %1, i32 noundef 1, i32 noundef -2147483648)
  %15 = load i32, ptr @hf_r3_command, align 4
  %16 = add i32 %1, 1
  %17 = tail call ptr @proto_tree_add_item(ptr noundef nonnull %4, i32 noundef %15, ptr noundef %0, i32 noundef %16, i32 noundef 1, i32 noundef -2147483648)
  %18 = load i32, ptr @ett_r3alarmlist, align 4
  %19 = call ptr @proto_tree_add_subtree(ptr noundef nonnull %4, ptr noundef %12, i32 noundef 0, i32 noundef -1, i32 noundef %18, ptr noundef nonnull %6, ptr noundef nonnull @.str.2183)
  %.not68 = icmp eq i32 %11, 0
  br i1 %.not68, label %.loopexit.thread, label %.lr.ph

.lr.ph:                                           ; preds = %7, %41
  %.067 = phi i32 [ %49, %41 ], [ 0, %7 ]
  %.05066 = phi i32 [ %48, %41 ], [ 0, %7 ]
  %20 = add nuw i32 %.067, 1
  %21 = call zeroext i8 @tvb_get_uint8(ptr noundef %12, i32 noundef %20)
  %22 = zext i8 %21 to i32
  %23 = call ptr @try_val_to_str_ext(i32 noundef %22, ptr noundef nonnull @r3_alarmidnames_ext)
  %.not56 = icmp eq ptr %23, null
  br i1 %.not56, label %31, label %24

24:                                               ; preds = %.lr.ph
  %25 = add i32 %.067, 2
  %26 = call zeroext i8 @tvb_get_uint8(ptr noundef %12, i32 noundef %25)
  %.not57 = icmp ult i8 %26, 2
  br i1 %.not57, label %27, label %31

27:                                               ; preds = %24
  %28 = call zeroext i8 @tvb_get_uint8(ptr noundef %12, i32 noundef %25)
  %29 = and i8 %28, 1
  %.not58 = icmp eq i8 %29, 0
  %30 = select i1 %.not58, ptr @.str.2139, ptr @.str.2138
  br label %31

31:                                               ; preds = %27, %24, %.lr.ph
  %.049 = phi ptr [ @.str.2184, %.lr.ph ], [ %23, %24 ], [ %23, %27 ]
  %.048 = phi ptr [ @.str.2185, %.lr.ph ], [ @.str.52, %24 ], [ %30, %27 ]
  %32 = call zeroext i8 @tvb_get_uint8(ptr noundef %12, i32 noundef %.067)
  %33 = zext i8 %32 to i32
  %34 = load i32, ptr @ett_r3alarmcfg, align 4
  %35 = call ptr (ptr, ptr, i32, i32, i32, ptr, ptr, ...) @proto_tree_add_subtree_format(ptr noundef %19, ptr noundef %12, i32 noundef %.067, i32 noundef %33, i32 noundef %34, ptr noundef null, ptr noundef nonnull @.str.2186, ptr noundef nonnull %.049, ptr noundef nonnull %.048)
  %36 = call zeroext i8 @tvb_get_uint8(ptr noundef %12, i32 noundef %.067)
  %37 = load i32, ptr @hf_r3_alarm_length, align 4
  %38 = call ptr @proto_tree_add_item(ptr noundef %35, i32 noundef %37, ptr noundef %12, i32 noundef %.067, i32 noundef 1, i32 noundef -2147483648)
  %39 = icmp eq i8 %36, 0
  br i1 %39, label %.thread, label %41

.thread:                                          ; preds = %31
  %40 = call ptr (ptr, ptr, ptr, ptr, ...) @expert_add_info_format(ptr noundef %3, ptr noundef %38, ptr noundef nonnull @ei_r3_malformed_length, ptr noundef nonnull @.str.2187)
  br label %.loopexit

41:                                               ; preds = %31
  %42 = zext i8 %36 to i32
  %43 = load i32, ptr @hf_r3_alarm_id, align 4
  %44 = call ptr @proto_tree_add_item(ptr noundef %35, i32 noundef %43, ptr noundef %12, i32 noundef %20, i32 noundef 1, i32 noundef -2147483648)
  %45 = load i32, ptr @hf_r3_alarm_state, align 4
  %46 = add i32 %.067, 2
  %47 = call ptr @proto_tree_add_item(ptr noundef %35, i32 noundef %45, ptr noundef %12, i32 noundef %46, i32 noundef 1, i32 noundef -2147483648)
  %48 = add i32 %.05066, 1
  %49 = add i32 %.067, %42
  %50 = icmp ult i32 %49, %11
  br i1 %50, label %.lr.ph, label %.loopexit

.loopexit:                                        ; preds = %41, %.thread
  %.05065 = phi i32 [ %.05066, %.thread ], [ %48, %41 ]
  %.not59 = icmp eq i32 %.05065, 0
  br i1 %.not59, label %.loopexit.thread, label %51

51:                                               ; preds = %.loopexit
  %52 = load ptr, ptr %6, align 8
  call void (ptr, ptr, ...) @proto_item_set_text(ptr noundef %52, ptr noundef nonnull @.str.2188, i32 noundef %.05065)
  br label %.loopexit.thread

.loopexit.thread:                                 ; preds = %7, %.loopexit, %51, %5
  call void @llvm.lifetime.end.p0(i64 8, ptr nonnull %6) #5
  ret void
}